target datalayout = "e-m:e-p270:32:32-p271:32:32-p272:64:64-i64:64-i128:128-f80:128-n8:16:32:64-S128"
target triple = "x86_64-pc-linux-gnu"

%struct.PLpgSQL_execstate = type { ptr, ptr, ptr, i64, i8, i32, i32, i8, i8, i8, i8, ptr, ptr, ptr, ptr, ptr, ptr, ptr, i32, i32, ptr, ptr, ptr, ptr, ptr, ptr, ptr, ptr, ptr, ptr, i64, ptr, ptr, ptr, ptr, ptr }
%struct.PLpgSQL_var = type { i32, i32, ptr, i32, i8, i8, ptr, ptr, ptr, i32, i32, i64, i8, i8, i32 }
%struct.PLpgSQL_type = type { ptr, i32, i32, i16, i8, i8, i32, i8, i32, ptr, ptr, i64 }
%struct.varattrib_1b = type { i8, [0 x i8] }
%struct.varattrib_1b_e = type { i8, i8, [0 x i8] }
%struct.ExprContext = type { i32, ptr, ptr, ptr, ptr, ptr, ptr, ptr, ptr, ptr, i64, i8, i64, i8, ptr, ptr, ptr, ptr }

@CurrentMemoryContext = external global ptr, align 8

; Function Attrs: inlinehint nounwind uwtable
define internal i64 @PointerGetDatum(ptr noundef %0) #2 {
  %2 = alloca ptr, align 8
  store ptr %0, ptr %2, align 8
  %3 = load ptr, ptr %2, align 8
  %4 = ptrtoint ptr %3 to i64
  ret i64 %4
}

; Function Attrs: inlinehint nounwind uwtable
define internal ptr @MemoryContextSwitchTo(ptr noundef %0) #2 {
  %2 = alloca ptr, align 8
  %3 = alloca ptr, align 8
  store ptr %0, ptr %2, align 8
  call void @llvm.lifetime.start.p0(i64 8, ptr %3) #12
  %4 = load ptr, ptr @CurrentMemoryContext, align 8
  store ptr %4, ptr %3, align 8
  %5 = load ptr, ptr %2, align 8
  store ptr %5, ptr @CurrentMemoryContext, align 8
  %6 = load ptr, ptr %3, align 8
  call void @llvm.lifetime.end.p0(i64 8, ptr %3) #12
  ret ptr %6
}

; Function Attrs: inlinehint nounwind uwtable
define internal ptr @DatumGetPointer(i64 noundef %0) #2 {
  %2 = alloca i64, align 8
  store i64 %0, ptr %2, align 8
  %3 = load i64, ptr %2, align 8
  %4 = inttoptr i64 %3 to ptr
  ret ptr %4
}

; Function Attrs: nounwind uwtable
define internal void @assign_simple_var(ptr noundef %0, ptr noundef %1, i64 noundef %2, i1 noundef zeroext %3, i1 noundef zeroext %4) #0 {
  %6 = alloca ptr, align 8
  %7 = alloca ptr, align 8
  %8 = alloca i64, align 8
  %9 = alloca i8, align 1
  %10 = alloca i8, align 1
  %11 = alloca ptr, align 8
  %12 = alloca i64, align 8
  store ptr %0, ptr %6, align 8
  store ptr %1, ptr %7, align 8
  store i64 %2, ptr %8, align 8
  %13 = zext i1 %3 to i8
  store i8 %13, ptr %9, align 1
  %14 = zext i1 %4 to i8
  store i8 %14, ptr %10, align 1
  %15 = load ptr, ptr %6, align 8
  %16 = getelementptr inbounds nuw %struct.PLpgSQL_execstate, ptr %15, i32 0, i32 10
  %17 = load i8, ptr %16, align 1, !range !3, !noundef !4
  %18 = trunc i8 %17 to i1
  br i1 %18, label %66, label %19

19:                                               ; preds = %5
  %20 = load i8, ptr %9, align 1, !range !3, !noundef !4
  %21 = trunc i8 %20 to i1
  br i1 %21, label %66, label %22

22:                                               ; preds = %19
  %23 = load ptr, ptr %7, align 8
  %24 = getelementptr inbounds nuw %struct.PLpgSQL_var, ptr %23, i32 0, i32 7
  %25 = load ptr, ptr %24, align 8
  %26 = getelementptr inbounds nuw %struct.PLpgSQL_type, ptr %25, i32 0, i32 3
  %27 = load i16, ptr %26, align 8
  %28 = sext i16 %27 to i32
  %29 = icmp eq i32 %28, -1
  br i1 %29, label %30, label %66

30:                                               ; preds = %22
  %31 = load i64, ptr %8, align 8
  %32 = call ptr @DatumGetPointer(i64 noundef %31)
  %33 = getelementptr inbounds nuw %struct.varattrib_1b, ptr %32, i32 0, i32 0
  %34 = load i8, ptr %33, align 1
  %35 = zext i8 %34 to i32
  %36 = icmp eq i32 %35, 1
  br i1 %36, label %37, label %66

37:                                               ; preds = %30
  %38 = load i64, ptr %8, align 8
  %39 = call ptr @DatumGetPointer(i64 noundef %38)
  %40 = getelementptr inbounds nuw %struct.varattrib_1b_e, ptr %39, i32 0, i32 1
  %41 = load i8, ptr %40, align 1
  %42 = zext i8 %41 to i32
  %43 = and i32 %42, -2
  %44 = icmp eq i32 %43, 2
  br i1 %44, label %66, label %45

45:                                               ; preds = %37
  call void @llvm.lifetime.start.p0(i64 8, ptr %11) #12
  call void @llvm.lifetime.start.p0(i64 8, ptr %12) #12
  %46 = load ptr, ptr %6, align 8
  %47 = getelementptr inbounds nuw %struct.PLpgSQL_execstate, ptr %46, i32 0, i32 31
  %48 = load ptr, ptr %47, align 8
  %49 = getelementptr inbounds nuw %struct.ExprContext, ptr %48, i32 0, i32 5
  %50 = load ptr, ptr %49, align 8
  %51 = call ptr @MemoryContextSwitchTo(ptr noundef %50)
  store ptr %51, ptr %11, align 8
  %52 = load i64, ptr %8, align 8
  %53 = call ptr @DatumGetPointer(i64 noundef %52)
  %54 = call ptr @detoast_external_attr(ptr noundef %53)
  %55 = call i64 @PointerGetDatum(ptr noundef %54)
  store i64 %55, ptr %12, align 8
  %56 = load ptr, ptr %11, align 8
  %57 = call ptr @MemoryContextSwitchTo(ptr noundef %56)
  %58 = load i8, ptr %10, align 1, !range !3, !noundef !4
  %59 = trunc i8 %58 to i1
  br i1 %59, label %60, label %63

60:                                               ; preds = %45
  %61 = load i64, ptr %8, align 8
  %62 = call ptr @DatumGetPointer(i64 noundef %61)
  call void @pfree(ptr noundef %62)
  br label %63

63:                                               ; preds = %60, %45
  %64 = load i64, ptr %12, align 8
  %65 = call i64 @datumCopy(i64 noundef %64, i1 noundef zeroext false, i32 noundef -1)
  store i64 %65, ptr %8, align 8
  store i8 1, ptr %10, align 1
  call void @llvm.lifetime.end.p0(i64 8, ptr %12) #12
  call void @llvm.lifetime.end.p0(i64 8, ptr %11) #12
  br label %66

66:                                               ; preds = %63, %37, %30, %22, %19, %5
  %67 = load ptr, ptr %7, align 8
  %68 = getelementptr inbounds nuw %struct.PLpgSQL_var, ptr %67, i32 0, i32 13
  %69 = load i8, ptr %68, align 1, !range !3, !noundef !4
  %70 = trunc i8 %69 to i1
  br i1 %70, label %71, label %113

71:                                               ; preds = %66
  %72 = load ptr, ptr %7, align 8
  %73 = getelementptr inbounds nuw %struct.PLpgSQL_var, ptr %72, i32 0, i32 12
  %74 = load i8, ptr %73, align 8, !range !3, !noundef !4
  %75 = trunc i8 %74 to i1
  br i1 %75, label %84, label %76

76:                                               ; preds = %71
  %77 = load ptr, ptr %7, align 8
  %78 = getelementptr inbounds nuw %struct.PLpgSQL_var, ptr %77, i32 0, i32 7
  %79 = load ptr, ptr %78, align 8
  %80 = getelementptr inbounds nuw %struct.PLpgSQL_type, ptr %79, i32 0, i32 3
  %81 = load i16, ptr %80, align 8
  %82 = sext i16 %81 to i32
  %83 = icmp ne i32 %82, -1
  br i1 %83, label %84, label %85

84:                                               ; preds = %76, %71
  br i1 false, label %103, label %107

85:                                               ; preds = %76
  %86 = load ptr, ptr %7, align 8
  %87 = getelementptr inbounds nuw %struct.PLpgSQL_var, ptr %86, i32 0, i32 11
  %88 = load i64, ptr %87, align 8
  %89 = call ptr @DatumGetPointer(i64 noundef %88)
  %90 = getelementptr inbounds nuw %struct.varattrib_1b, ptr %89, i32 0, i32 0
  %91 = load i8, ptr %90, align 1
  %92 = zext i8 %91 to i32
  %93 = icmp eq i32 %92, 1
  br i1 %93, label %94, label %107

94:                                               ; preds = %85
  %95 = load ptr, ptr %7, align 8
  %96 = getelementptr inbounds nuw %struct.PLpgSQL_var, ptr %95, i32 0, i32 11
  %97 = load i64, ptr %96, align 8
  %98 = call ptr @DatumGetPointer(i64 noundef %97)
  %99 = getelementptr inbounds nuw %struct.varattrib_1b_e, ptr %98, i32 0, i32 1
  %100 = load i8, ptr %99, align 1
  %101 = zext i8 %100 to i32
  %102 = icmp eq i32 %101, 3
  br i1 %102, label %103, label %107

103:                                              ; preds = %94, %84
  %104 = load ptr, ptr %7, align 8
  %105 = getelementptr inbounds nuw %struct.PLpgSQL_var, ptr %104, i32 0, i32 11
  %106 = load i64, ptr %105, align 8
  call void @DeleteExpandedObject(i64 noundef %106)
  br label %112

107:                                              ; preds = %94, %85, %84
  %108 = load ptr, ptr %7, align 8
  %109 = getelementptr inbounds nuw %struct.PLpgSQL_var, ptr %108, i32 0, i32 11
  %110 = load i64, ptr %109, align 8
  %111 = call ptr @DatumGetPointer(i64 noundef %110)
  call void @pfree(ptr noundef %111)
  br label %112

112:                                              ; preds = %107, %103
  br label %113

113:                                              ; preds = %112, %66
  %114 = load i64, ptr %8, align 8
  %115 = load ptr, ptr %7, align 8
  %116 = getelementptr inbounds nuw %struct.PLpgSQL_var, ptr %115, i32 0, i32 11
  store i64 %114, ptr %116, align 8
  %117 = load i8, ptr %9, align 1, !range !3, !noundef !4
  %118 = trunc i8 %117 to i1
  %119 = load ptr, ptr %7, align 8
  %120 = getelementptr inbounds nuw %struct.PLpgSQL_var, ptr %119, i32 0, i32 12
  %121 = zext i1 %118 to i8
  store i8 %121, ptr %120, align 8
  %122 = load i8, ptr %10, align 1, !range !3, !noundef !4
  %123 = trunc i8 %122 to i1
  %124 = load ptr, ptr %7, align 8
  %125 = getelementptr inbounds nuw %struct.PLpgSQL_var, ptr %124, i32 0, i32 13
  %126 = zext i1 %123 to i8
  store i8 %126, ptr %125, align 1
  %127 = load ptr, ptr %7, align 8
  %128 = getelementptr inbounds nuw %struct.PLpgSQL_var, ptr %127, i32 0, i32 14
  store i32 0, ptr %128, align 4
  ret void
}