; Function Attrs: nounwind uwtable
define internal fastcc void @assign_simple_var(ptr noundef readonly captures(none) %0, ptr noundef captures(none) initializes((68, 72)) %1, i64 noundef %2, i1 noundef zeroext %3, i1 noundef zeroext %4) unnamed_addr #0 {
  %6 = getelementptr inbounds nuw i8, ptr %0, i64 47
  %7 = load i8, ptr %6, align 1, !range !3, !noundef !4
  %8 = trunc nuw i8 %7 to i1
  %brmerge = or i1 %3, %8
  br i1 %brmerge, label %35, label %9

9:                                                ; preds = %5
  %10 = getelementptr inbounds nuw i8, ptr %1, i64 32
  %11 = load ptr, ptr %10, align 8
  %12 = getelementptr inbounds nuw i8, ptr %11, i64 16
  %13 = load i16, ptr %12, align 8
  %14 = icmp eq i16 %13, -1
  br i1 %14, label %15, label %35

15:                                               ; preds = %9
  %16 = inttoptr i64 %2 to ptr
  %17 = load i8, ptr %16, align 1
  %18 = icmp eq i8 %17, 1
  br i1 %18, label %19, label %35

19:                                               ; preds = %15
  %20 = getelementptr inbounds nuw i8, ptr %16, i64 1
  %21 = load i8, ptr %20, align 1
  %22 = and i8 %21, -2
  %23 = icmp eq i8 %22, 2
  br i1 %23, label %35, label %24

24:                                               ; preds = %19
  %25 = getelementptr inbounds nuw i8, ptr %0, i64 200
  %26 = load ptr, ptr %25, align 8
  %27 = getelementptr inbounds nuw i8, ptr %26, i64 40
  %28 = load ptr, ptr %27, align 8
  %29 = load ptr, ptr @CurrentMemoryContext, align 8
  store ptr %28, ptr @CurrentMemoryContext, align 8
  %30 = tail call ptr @detoast_external_attr(ptr noundef nonnull %16) #12
  %31 = ptrtoint ptr %30 to i64
  store ptr %29, ptr @CurrentMemoryContext, align 8
  br i1 %4, label %32, label %33

32:                                               ; preds = %24
  tail call void @pfree(ptr noundef nonnull %16) #12
  br label %33

33:                                               ; preds = %32, %24
  %34 = tail call i64 @datumCopy(i64 noundef %31, i1 noundef zeroext false, i32 noundef -1) #12
  br label %35

35:                                               ; preds = %5, %33, %19, %15, %9
  %.024.shrunk = phi i1 [ %4, %5 ], [ %4, %19 ], [ true, %33 ], [ %4, %15 ], [ %4, %9 ]
  %.0 = phi i64 [ %2, %5 ], [ %2, %19 ], [ %34, %33 ], [ %2, %15 ], [ %2, %9 ]
  %36 = getelementptr inbounds nuw i8, ptr %1, i64 65
  %37 = load i8, ptr %36, align 1, !range !3, !noundef !4
  %38 = trunc nuw i8 %37 to i1
  br i1 %38, label %39, label %63

39:                                               ; preds = %35
  %40 = getelementptr inbounds nuw i8, ptr %1, i64 64
  %41 = load i8, ptr %40, align 8, !range !3, !noundef !4
  %42 = trunc nuw i8 %41 to i1
  br i1 %42, label %59, label %43

43:                                               ; preds = %39
  %44 = getelementptr inbounds nuw i8, ptr %1, i64 32
  %45 = load ptr, ptr %44, align 8
  %46 = getelementptr inbounds nuw i8, ptr %45, i64 16
  %47 = load i16, ptr %46, align 8
  %.not = icmp eq i16 %47, -1
  br i1 %.not, label %48, label %59

48:                                               ; preds = %43
  %49 = getelementptr inbounds nuw i8, ptr %1, i64 56
  %50 = load i64, ptr %49, align 8
  %51 = inttoptr i64 %50 to ptr
  %52 = load i8, ptr %51, align 1
  %53 = icmp eq i8 %52, 1
  br i1 %53, label %54, label %59

54:                                               ; preds = %48
  %55 = getelementptr inbounds nuw i8, ptr %51, i64 1
  %56 = load i8, ptr %55, align 1
  %57 = icmp eq i8 %56, 3
  br i1 %57, label %58, label %59

58:                                               ; preds = %54
  tail call void @DeleteExpandedObject(i64 noundef %50) #12
  br label %63

59:                                               ; preds = %39, %43, %54, %48
  %60 = getelementptr inbounds nuw i8, ptr %1, i64 56
  %61 = load i64, ptr %60, align 8
  %62 = inttoptr i64 %61 to ptr
  tail call void @pfree(ptr noundef %62) #12
  br label %63

63:                                               ; preds = %58, %59, %35
  %64 = zext i1 %3 to i8
  %65 = getelementptr inbounds nuw i8, ptr %1, i64 56
  store i64 %.0, ptr %65, align 8
  %66 = getelementptr inbounds nuw i8, ptr %1, i64 64
  store i8 %64, ptr %66, align 8
  %67 = zext i1 %.024.shrunk to i8
  store i8 %67, ptr %36, align 1
  %68 = getelementptr inbounds nuw i8, ptr %1, i64 68
  store i32 0, ptr %68, align 4
  ret void
}